; Function Attrs: mustprogress nounwind uwtable
define dso_local void @_ZN5clang6format19UnwrappedLineParser16handleAttributesEv(ptr noundef nonnull align 8 dereferenceable(3592) %0) local_unnamed_addr #0 align 2 {
  %2 = getelementptr inbounds nuw i8, ptr %0, i64 984
  %3 = load ptr, ptr %2, align 8
  %4 = getelementptr inbounds nuw i8, ptr %3, i64 16
  %5 = load i16, ptr %4, align 8
  %6 = icmp eq i16 %5, 188
  br i1 %6, label %_ZNK5clang6format11FormatToken11isAttributeEv.exit.thread, label %_ZNK5clang6format11FormatToken11isAttributeEv.exit

_ZNK5clang6format11FormatToken11isAttributeEv.exit: ; preds = %1
  %7 = icmp eq i16 %5, 318
  %8 = getelementptr inbounds nuw i8, ptr %3, i64 67
  %9 = load i8, ptr %8, align 1
  %10 = icmp eq i8 %9, 4
  %11 = select i1 %7, i1 true, i1 %10
  br i1 %11, label %_ZNK5clang6format11FormatToken11isAttributeEv.exit.thread, label %12

_ZNK5clang6format11FormatToken11isAttributeEv.exit.thread: ; preds = %1, %_ZNK5clang6format11FormatToken11isAttributeEv.exit
  tail call void @_ZN5clang6format19UnwrappedLineParser9nextTokenEi(ptr noundef nonnull align 8 dereferenceable(3592) %0, i32 noundef 0)
  br label %16

12:                                               ; preds = %_ZNK5clang6format11FormatToken11isAttributeEv.exit
  %13 = icmp eq i16 %5, 20
  br i1 %13, label %14, label %16

14:                                               ; preds = %12
  %15 = tail call noundef zeroext i1 @_ZN5clang6format19UnwrappedLineParser19handleCppAttributesEv(ptr noundef nonnull align 8 dereferenceable(3592) %0)
  br label %16

16:                                               ; preds = %12, %14, %_ZNK5clang6format11FormatToken11isAttributeEv.exit.thread
  ret void
}